; Function Attrs: nounwind uwtable
define ptr @l_Lean_Elab_checkNotAlreadyDeclared___rarg___lambda__5(ptr noundef %0, ptr noundef %1, ptr noundef %2, ptr noundef %3, ptr noundef %4, ptr readnone captures(none) %5) local_unnamed_addr #0 {
  %7 = tail call ptr @l_Lean_MessageData_ofConstName(ptr noundef %0, i8 noundef zeroext 1) #7
  %8 = load ptr, ptr @l_Lean_Elab_checkNotAlreadyDeclared___rarg___lambda__5___closed__2, align 8, !tbaa !9
  tail call void @lean_inc_heartbeat() #7
  %9 = tail call noalias ptr @mi_malloc_small(i64 noundef 24) #7
  %10 = icmp eq ptr %9, null
  br i1 %10, label %11, label %lean_alloc_ctor.exit

11:                                               ; preds = %6
  tail call void @lean_internal_panic_out_of_memory() #8
  unreachable

lean_alloc_ctor.exit:                             ; preds = %6
  %12 = getelementptr inbounds nuw i8, ptr %9, i64 4
  store i32 1, ptr %9, align 4, !tbaa !4
  store i32 117571608, ptr %12, align 4
  %13 = getelementptr inbounds nuw i8, ptr %9, i64 8
  store ptr %8, ptr %13, align 8, !tbaa !9
  %14 = getelementptr inbounds nuw i8, ptr %9, i64 16
  store ptr %7, ptr %14, align 8, !tbaa !9
  %15 = load ptr, ptr @l_Lean_Elab_checkNotAlreadyDeclared___rarg___lambda__3___closed__4, align 8, !tbaa !9
  tail call void @lean_inc_heartbeat() #7
  %16 = tail call noalias ptr @mi_malloc_small(i64 noundef 24) #7
  %17 = icmp eq ptr %16, null
  br i1 %17, label %18, label %lean_alloc_ctor.exit16

18:                                               ; preds = %lean_alloc_ctor.exit
  tail call void @lean_internal_panic_out_of_memory() #8
  unreachable

lean_alloc_ctor.exit16:                           ; preds = %lean_alloc_ctor.exit
  %19 = getelementptr inbounds nuw i8, ptr %16, i64 4
  store i32 1, ptr %16, align 4, !tbaa !4
  store i32 117571608, ptr %19, align 4
  %20 = getelementptr inbounds nuw i8, ptr %16, i64 8
  store ptr %9, ptr %20, align 8, !tbaa !9
  %21 = getelementptr inbounds nuw i8, ptr %16, i64 16
  store ptr %15, ptr %21, align 8, !tbaa !9
  %22 = tail call ptr @l_Lean_throwError___rarg(ptr noundef %1, ptr noundef %2, ptr noundef nonnull %16) #7
  %23 = tail call ptr @lean_apply_4(ptr noundef %4, ptr noundef nonnull inttoptr (i64 1 to ptr), ptr noundef nonnull inttoptr (i64 1 to ptr), ptr noundef %22, ptr noundef %3) #7
  ret ptr %23
}